target datalayout = "e-m:e-p270:32:32-p271:32:32-p272:64:64-i64:64-i128:128-f80:128-n8:16:32:64-S128"
target triple = "x86_64-unknown-linux-gnu"

%"class.std::vector.0" = type { %"struct.std::_Vector_base.1" }
%"struct.std::_Vector_base.1" = type { %"struct.std::_Vector_base<std::__cxx11::basic_string<char>, std::allocator<std::__cxx11::basic_string<char>>>::_Vector_impl" }
%"struct.std::_Vector_base<std::__cxx11::basic_string<char>, std::allocator<std::__cxx11::basic_string<char>>>::_Vector_impl" = type { %"struct.std::_Vector_base<std::__cxx11::basic_string<char>, std::allocator<std::__cxx11::basic_string<char>>>::_Vector_impl_data" }
%"struct.std::_Vector_base<std::__cxx11::basic_string<char>, std::allocator<std::__cxx11::basic_string<char>>>::_Vector_impl_data" = type { ptr, ptr, ptr }
%"class.folly::Range" = type { ptr, ptr }
%"struct.facebook::velox::type::fbhive::Token" = type { ptr, %"class.folly::Range" }
%"struct.facebook::velox::type::fbhive::TokenMetadata" = type <{ i32, i8, [3 x i8], %"class.std::vector.0", i8, [7 x i8] }>

; Function Attrs: mustprogress nounwind uwtable
define noundef zeroext i1 @_ZNK8facebook5velox4type6fbhive5Token15isPrimitiveTypeEv(ptr noundef nonnull align 8 dereferenceable(24) %this) #1 align 2 {
entry:
  %this.addr = alloca ptr, align 8
  store ptr %this, ptr %this.addr, align 8
  %this1 = load ptr, ptr %this.addr, align 8
  %metadata = getelementptr inbounds %"struct.facebook::velox::type::fbhive::Token", ptr %this1, i32 0, i32 0
  %0 = load ptr, ptr %metadata, align 8
  %isPrimitiveType = getelementptr inbounds %"struct.facebook::velox::type::fbhive::TokenMetadata", ptr %0, i32 0, i32 4
  %1 = load i8, ptr %isPrimitiveType, align 8
  %tobool = trunc i8 %1 to i1
  ret i1 %tobool
}