; Function Attrs: mustprogress nofree norecurse nosync nounwind willreturn memory(read, inaccessiblemem: none) uwtable
define noundef zeroext i1 @_ZNK8facebook5velox4type6fbhive5Token15isPrimitiveTypeEv(ptr nocapture noundef nonnull readonly align 8 dereferenceable(24) %this) local_unnamed_addr #5 align 2 {
entry:
  %0 = load ptr, ptr %this, align 8
  %isPrimitiveType = getelementptr inbounds i8, ptr %0, i64 32
  %1 = load i8, ptr %isPrimitiveType, align 8
  %2 = and i8 %1, 1
  %tobool = icmp ne i8 %2, 0
  ret i1 %tobool
}